; Function Attrs: mustprogress uwtable
define void @_ZN14duckdb_parquet14DataPageHeader16__set_statisticsERKNS_10StatisticsE(ptr noundef nonnull align 8 dereferenceable(185) %0, ptr noundef nonnull align 8 dereferenceable(155) %1) local_unnamed_addr #2 align 2 {
  %3 = getelementptr inbounds nuw i8, ptr %1, i64 8
  %4 = getelementptr inbounds nuw i8, ptr %0, i64 32
  tail call void @_ZNSt7__cxx1112basic_stringIcSt11char_traitsIcESaIcEE9_M_assignERKS4_(ptr noundef nonnull align 8 dereferenceable(32) %4, ptr noundef nonnull align 8 dereferenceable(32) %3)
  %5 = getelementptr inbounds nuw i8, ptr %1, i64 40
  %6 = getelementptr inbounds nuw i8, ptr %0, i64 64
  tail call void @_ZNSt7__cxx1112basic_stringIcSt11char_traitsIcESaIcEE9_M_assignERKS4_(ptr noundef nonnull align 8 dereferenceable(32) %6, ptr noundef nonnull align 8 dereferenceable(32) %5)
  %7 = getelementptr inbounds nuw i8, ptr %1, i64 72
  %8 = load i64, ptr %7, align 8, !tbaa !134
  %9 = getelementptr inbounds nuw i8, ptr %0, i64 96
  store i64 %8, ptr %9, align 8, !tbaa !134
  %10 = getelementptr inbounds nuw i8, ptr %1, i64 80
  %11 = load i64, ptr %10, align 8, !tbaa !135
  %12 = getelementptr inbounds nuw i8, ptr %0, i64 104
  store i64 %11, ptr %12, align 8, !tbaa !135
  %13 = getelementptr inbounds nuw i8, ptr %1, i64 88
  %14 = getelementptr inbounds nuw i8, ptr %0, i64 112
  tail call void @_ZNSt7__cxx1112basic_stringIcSt11char_traitsIcESaIcEE9_M_assignERKS4_(ptr noundef nonnull align 8 dereferenceable(32) %14, ptr noundef nonnull align 8 dereferenceable(32) %13)
  %15 = getelementptr inbounds nuw i8, ptr %1, i64 120
  %16 = getelementptr inbounds nuw i8, ptr %0, i64 144
  tail call void @_ZNSt7__cxx1112basic_stringIcSt11char_traitsIcESaIcEE9_M_assignERKS4_(ptr noundef nonnull align 8 dereferenceable(32) %16, ptr noundef nonnull align 8 dereferenceable(32) %15)
  %17 = getelementptr inbounds nuw i8, ptr %1, i64 152
  %18 = load i8, ptr %17, align 8, !tbaa !130, !range !137, !noundef !138
  %19 = getelementptr inbounds nuw i8, ptr %0, i64 176
  store i8 %18, ptr %19, align 8, !tbaa !130
  %20 = getelementptr inbounds nuw i8, ptr %1, i64 153
  %21 = load i8, ptr %20, align 1, !tbaa !133, !range !137, !noundef !138
  %22 = getelementptr inbounds nuw i8, ptr %0, i64 177
  store i8 %21, ptr %22, align 1, !tbaa !133
  %23 = getelementptr inbounds nuw i8, ptr %1, i64 154
  %24 = getelementptr inbounds nuw i8, ptr %0, i64 178
  %25 = load i8, ptr %23, align 2, !tbaa !38
  store i8 %25, ptr %24, align 2, !tbaa !38
  %26 = getelementptr inbounds nuw i8, ptr %0, i64 184
  %27 = load i8, ptr %26, align 8
  %28 = or i8 %27, 1
  store i8 %28, ptr %26, align 8
  ret void
}